(lp1
(dp2
I269512568
Vt1W8Yt45LPyL9ZA1CvWLf6NJkmi7XUXiSbu
p3
sI-148273809
Vt1W8Yt45LPyL9ZA1CvWLf6NJkmi7XUXiSbu
p4
sa(dp5
I269512568
V5.0
p6
sI-148273809
V5.0
p7
sa(dp8
I269512568
I0
sI-148273809
I0
sa.